target datalayout = "e-m:e-p270:32:32-p271:32:32-p272:64:64-i64:64-i128:128-f80:128-n8:16:32:64-S128"
target triple = "x86_64-pc-linux-gnu"

%struct.procfs_entry_s = type { ptr, ptr, i8 }
%struct.procfs_operations = type { ptr, ptr, ptr, ptr, ptr, ptr, ptr, ptr, ptr, ptr, ptr }
%struct.file = type { i32, i32, ptr, ptr }
%struct.procfs_file_s = type { ptr }

; Function Attrs: nounwind uwtable
define internal i32 @procfs_poll(ptr noundef %0, ptr noundef %1, i1 noundef zeroext %2) #0 {
  %4 = alloca i32, align 4
  %5 = alloca ptr, align 8
  %6 = alloca ptr, align 8
  %7 = alloca i8, align 1
  %8 = alloca ptr, align 8
  store ptr %0, ptr %5, align 8
  store ptr %1, ptr %6, align 8
  %9 = zext i1 %2 to i8
  store i8 %9, ptr %7, align 1
  br label %10

10:                                               ; preds = %3
  br label %11

11:                                               ; preds = %10
  %12 = load ptr, ptr %5, align 8
  %13 = getelementptr inbounds %struct.file, ptr %12, i32 0, i32 3
  %14 = load ptr, ptr %13, align 8
  store ptr %14, ptr %8, align 8
  %15 = load ptr, ptr %8, align 8
  %16 = getelementptr inbounds %struct.procfs_file_s, ptr %15, i32 0, i32 0
  %17 = load ptr, ptr %16, align 8
  %18 = getelementptr inbounds %struct.procfs_entry_s, ptr %17, i32 0, i32 1
  %19 = load ptr, ptr %18, align 8
  %20 = getelementptr inbounds %struct.procfs_operations, ptr %19, i32 0, i32 4
  %21 = load ptr, ptr %20, align 8
  %22 = icmp ne ptr %21, null
  br i1 %22, label %23, label %36

23:                                               ; preds = %11
  %24 = load ptr, ptr %8, align 8
  %25 = getelementptr inbounds %struct.procfs_file_s, ptr %24, i32 0, i32 0
  %26 = load ptr, ptr %25, align 8
  %27 = getelementptr inbounds %struct.procfs_entry_s, ptr %26, i32 0, i32 1
  %28 = load ptr, ptr %27, align 8
  %29 = getelementptr inbounds %struct.procfs_operations, ptr %28, i32 0, i32 4
  %30 = load ptr, ptr %29, align 8
  %31 = load ptr, ptr %5, align 8
  %32 = load ptr, ptr %6, align 8
  %33 = load i8, ptr %7, align 1
  %34 = trunc i8 %33 to i1
  %35 = call i32 %30(ptr noundef %31, ptr noundef %32, i1 noundef zeroext %34)
  store i32 %35, ptr %4, align 4
  br label %37

36:                                               ; preds = %11
  store i32 -38, ptr %4, align 4
  br label %37

37:                                               ; preds = %36, %23
  %38 = load i32, ptr %4, align 4
  ret i32 %38
}