; Function Attrs: nounwind uwtable
define internal i32 @procfs_poll(ptr noundef %0, ptr noundef %1, i1 noundef zeroext %2) #0 {
  %4 = getelementptr inbounds nuw i8, ptr %0, i64 16
  %5 = load ptr, ptr %4, align 8
  %6 = load ptr, ptr %5, align 8
  %7 = getelementptr inbounds nuw i8, ptr %6, i64 8
  %8 = load ptr, ptr %7, align 8
  %9 = getelementptr inbounds nuw i8, ptr %8, i64 32
  %10 = load ptr, ptr %9, align 8
  %.not = icmp eq ptr %10, null
  br i1 %.not, label %13, label %11

11:                                               ; preds = %3
  %12 = tail call i32 %10(ptr noundef nonnull %0, ptr noundef %1, i1 noundef zeroext %2) #12
  br label %13

13:                                               ; preds = %3, %11
  %.0 = phi i32 [ %12, %11 ], [ -38, %3 ]
  ret i32 %.0
}